target datalayout = "e-m:e-p270:32:32-p271:32:32-p272:64:64-i64:64-i128:128-f80:128-n8:16:32:64-S128"
target triple = "x86_64-pc-linux-gnu"

@.str.8 = private unnamed_addr constant [124 x i8] c"generated/home/dtcxzyw/WorkSpace/Projects/compilers/llvm-opt-benchmark/bench/libquic/libquic/boringssl/crypto/pem/pem_lib.c\00", align 1

; Function Attrs: nounwind uwtable
define internal i32 @load_iv(ptr noundef %0, ptr noundef %1, i32 noundef %2) #0 {
  %4 = alloca i32, align 4
  %5 = alloca ptr, align 8
  %6 = alloca ptr, align 8
  %7 = alloca i32, align 4
  %8 = alloca i32, align 4
  %9 = alloca i32, align 4
  %10 = alloca ptr, align 8
  %11 = alloca i32, align 4
  store ptr %0, ptr %5, align 8, !tbaa !23
  store ptr %1, ptr %6, align 8, !tbaa !6
  store i32 %2, ptr %7, align 4, !tbaa !11
  call void @llvm.lifetime.start.p0(i64 4, ptr %8) #7
  call void @llvm.lifetime.start.p0(i64 4, ptr %9) #7
  call void @llvm.lifetime.start.p0(i64 8, ptr %10) #7
  %12 = load ptr, ptr %5, align 8, !tbaa !23
  %13 = load ptr, ptr %12, align 8, !tbaa !6
  store ptr %13, ptr %10, align 8, !tbaa !6
  store i32 0, ptr %9, align 4, !tbaa !11
  br label %14

14:                                               ; preds = %23, %3
  %15 = load i32, ptr %9, align 4, !tbaa !11
  %16 = load i32, ptr %7, align 4, !tbaa !11
  %17 = icmp slt i32 %15, %16
  br i1 %17, label %18, label %26

18:                                               ; preds = %14
  %19 = load ptr, ptr %6, align 8, !tbaa !6
  %20 = load i32, ptr %9, align 4, !tbaa !11
  %21 = sext i32 %20 to i64
  %22 = getelementptr inbounds i8, ptr %19, i64 %21
  store i8 0, ptr %22, align 1, !tbaa !15
  br label %23

23:                                               ; preds = %18
  %24 = load i32, ptr %9, align 4, !tbaa !11
  %25 = add nsw i32 %24, 1
  store i32 %25, ptr %9, align 4, !tbaa !11
  br label %14, !llvm.loop !43

26:                                               ; preds = %14
  %27 = load i32, ptr %7, align 4, !tbaa !11
  %28 = mul nsw i32 %27, 2
  store i32 %28, ptr %7, align 4, !tbaa !11
  store i32 0, ptr %9, align 4, !tbaa !11
  br label %29

29:                                               ; preds = %105, %26
  %30 = load i32, ptr %9, align 4, !tbaa !11
  %31 = load i32, ptr %7, align 4, !tbaa !11
  %32 = icmp slt i32 %30, %31
  br i1 %32, label %33, label %108

33:                                               ; preds = %29
  %34 = load ptr, ptr %10, align 8, !tbaa !6
  %35 = load i8, ptr %34, align 1, !tbaa !15
  %36 = sext i8 %35 to i32
  %37 = icmp sge i32 %36, 48
  br i1 %37, label %38, label %48

38:                                               ; preds = %33
  %39 = load ptr, ptr %10, align 8, !tbaa !6
  %40 = load i8, ptr %39, align 1, !tbaa !15
  %41 = sext i8 %40 to i32
  %42 = icmp sle i32 %41, 57
  br i1 %42, label %43, label %48

43:                                               ; preds = %38
  %44 = load ptr, ptr %10, align 8, !tbaa !6
  %45 = load i8, ptr %44, align 1, !tbaa !15
  %46 = sext i8 %45 to i32
  %47 = sub nsw i32 %46, 48
  store i32 %47, ptr %8, align 4, !tbaa !11
  br label %83

48:                                               ; preds = %38, %33
  %49 = load ptr, ptr %10, align 8, !tbaa !6
  %50 = load i8, ptr %49, align 1, !tbaa !15
  %51 = sext i8 %50 to i32
  %52 = icmp sge i32 %51, 65
  br i1 %52, label %53, label %64

53:                                               ; preds = %48
  %54 = load ptr, ptr %10, align 8, !tbaa !6
  %55 = load i8, ptr %54, align 1, !tbaa !15
  %56 = sext i8 %55 to i32
  %57 = icmp sle i32 %56, 70
  br i1 %57, label %58, label %64

58:                                               ; preds = %53
  %59 = load ptr, ptr %10, align 8, !tbaa !6
  %60 = load i8, ptr %59, align 1, !tbaa !15
  %61 = sext i8 %60 to i32
  %62 = sub nsw i32 %61, 65
  %63 = add nsw i32 %62, 10
  store i32 %63, ptr %8, align 4, !tbaa !11
  br label %82

64:                                               ; preds = %53, %48
  %65 = load ptr, ptr %10, align 8, !tbaa !6
  %66 = load i8, ptr %65, align 1, !tbaa !15
  %67 = sext i8 %66 to i32
  %68 = icmp sge i32 %67, 97
  br i1 %68, label %69, label %80

69:                                               ; preds = %64
  %70 = load ptr, ptr %10, align 8, !tbaa !6
  %71 = load i8, ptr %70, align 1, !tbaa !15
  %72 = sext i8 %71 to i32
  %73 = icmp sle i32 %72, 102
  br i1 %73, label %74, label %80

74:                                               ; preds = %69
  %75 = load ptr, ptr %10, align 8, !tbaa !6
  %76 = load i8, ptr %75, align 1, !tbaa !15
  %77 = sext i8 %76 to i32
  %78 = sub nsw i32 %77, 97
  %79 = add nsw i32 %78, 10
  store i32 %79, ptr %8, align 4, !tbaa !11
  br label %81

80:                                               ; preds = %69, %64
  call void @ERR_put_error(i32 noundef 9, i32 noundef 0, i32 noundef 103, ptr noundef @.str.8, i32 noundef 492)
  store i32 0, ptr %4, align 4
  store i32 1, ptr %11, align 4
  br label %111

81:                                               ; preds = %74
  br label %82

82:                                               ; preds = %81, %58
  br label %83

83:                                               ; preds = %82, %43
  %84 = load ptr, ptr %10, align 8, !tbaa !6
  %85 = getelementptr inbounds nuw i8, ptr %84, i32 1
  store ptr %85, ptr %10, align 8, !tbaa !6
  %86 = load i32, ptr %8, align 4, !tbaa !11
  %87 = load i32, ptr %9, align 4, !tbaa !11
  %88 = and i32 %87, 1
  %89 = icmp ne i32 %88, 0
  %90 = xor i1 %89, true
  %91 = zext i1 %90 to i32
  %92 = mul nsw i32 %91, 4
  %93 = sext i32 %92 to i64
  %94 = trunc i64 %93 to i32
  %95 = shl i32 %86, %94
  %96 = load ptr, ptr %6, align 8, !tbaa !6
  %97 = load i32, ptr %9, align 4, !tbaa !11
  %98 = sdiv i32 %97, 2
  %99 = sext i32 %98 to i64
  %100 = getelementptr inbounds i8, ptr %96, i64 %99
  %101 = load i8, ptr %100, align 1, !tbaa !15
  %102 = zext i8 %101 to i32
  %103 = or i32 %102, %95
  %104 = trunc i32 %103 to i8
  store i8 %104, ptr %100, align 1, !tbaa !15
  br label %105

105:                                              ; preds = %83
  %106 = load i32, ptr %9, align 4, !tbaa !11
  %107 = add nsw i32 %106, 1
  store i32 %107, ptr %9, align 4, !tbaa !11
  br label %29, !llvm.loop !44

108:                                              ; preds = %29
  %109 = load ptr, ptr %10, align 8, !tbaa !6
  %110 = load ptr, ptr %5, align 8, !tbaa !23
  store ptr %109, ptr %110, align 8, !tbaa !6
  store i32 1, ptr %4, align 4
  store i32 1, ptr %11, align 4
  br label %111

111:                                              ; preds = %108, %80
  call void @llvm.lifetime.end.p0(i64 8, ptr %10) #7
  call void @llvm.lifetime.end.p0(i64 4, ptr %9) #7
  call void @llvm.lifetime.end.p0(i64 4, ptr %8) #7
  %112 = load i32, ptr %4, align 4
  ret i32 %112
}